; Function Attrs: uwtable
define internal void @_ZThn8_N7rocksdb12_GLOBAL__N_126BackupEngineImplThreadSafe14GarbageCollectEv(ptr noalias sret(%"class.rocksdb::IOStatus") align 8 %agg.result, ptr noundef %this) unnamed_addr #14 align 2 personality ptr @__gxx_personality_v0 {
entry:
  %mutex_.i = getelementptr inbounds i8, ptr %this, i64 16
  tail call void @_ZN7rocksdb4port7RWMutex9WriteLockEv(ptr noundef nonnull align 8 dereferenceable(56) %mutex_.i), !noalias !56
  %impl_.i = getelementptr inbounds i8, ptr %this, i64 72
  invoke fastcc void @_ZN7rocksdb12_GLOBAL__N_116BackupEngineImpl14GarbageCollectEv(ptr noalias align 8 %agg.result, ptr noundef nonnull align 8 dereferenceable(816) %impl_.i)
          to label %invoke.cont.i unwind label %lpad.i

invoke.cont.i:                                    ; preds = %entry
  invoke void @_ZN7rocksdb4port7RWMutex11WriteUnlockEv(ptr noundef nonnull align 8 dereferenceable(56) %mutex_.i)
          to label %_ZN7rocksdb12_GLOBAL__N_126BackupEngineImplThreadSafe14GarbageCollectEv.exit unwind label %terminate.lpad.i.i

terminate.lpad.i.i:                               ; preds = %invoke.cont.i
  %0 = landingpad { ptr, i32 }
          catch ptr null
  %1 = extractvalue { ptr, i32 } %0, 0
  tail call void @__clang_call_terminate(ptr %1) #35
  unreachable

lpad.i:                                           ; preds = %entry
  %2 = landingpad { ptr, i32 }
          cleanup
  invoke void @_ZN7rocksdb4port7RWMutex11WriteUnlockEv(ptr noundef nonnull align 8 dereferenceable(56) %mutex_.i)
          to label %_ZN7rocksdb9WriteLockD2Ev.exit2.i unwind label %terminate.lpad.i1.i

terminate.lpad.i1.i:                              ; preds = %lpad.i
  %3 = landingpad { ptr, i32 }
          catch ptr null
  %4 = extractvalue { ptr, i32 } %3, 0
  tail call void @__clang_call_terminate(ptr %4) #35
  unreachable

_ZN7rocksdb9WriteLockD2Ev.exit2.i:                ; preds = %lpad.i
  resume { ptr, i32 } %2

_ZN7rocksdb12_GLOBAL__N_126BackupEngineImplThreadSafe14GarbageCollectEv.exit: ; preds = %invoke.cont.i
  ret void
}